target datalayout = "e-m:e-p270:32:32-p271:32:32-p272:64:64-i64:64-i128:128-f80:128-n8:16:32:64-S128"
target triple = "x86_64-pc-linux-gnu"

%struct.DdManager = type { %struct.DdNode, ptr, ptr, ptr, ptr, ptr, ptr, ptr, i32, i32, double, double, double, i32, i32, i32, i32, i32, i32, ptr, ptr, %struct.DdSubtable, i32, i32, i32, i32, i32, i32, i32, double, i32, i32, i32, ptr, i64, double, i32, ptr, ptr, ptr, ptr, ptr, ptr, ptr, i32, ptr, ptr, ptr, ptr, ptr, ptr, i32, i32, i32, double, i32, i32, i32, i32, double, double, i32, i32, i32, i32, i32, i32, i32, i32, i32, ptr, ptr, i32, i32, i32, i32, i32, i32, ptr, ptr, ptr, ptr, ptr, ptr, ptr, ptr, i32, i64, i64, i64, i32, i64, i64, double, double, double, double, double, double, i32, ptr, ptr, i64 }
%struct.DdNode = type { i32, i32, ptr, %union.anon, i64 }
%union.anon = type { %struct.DdChildren }
%struct.DdChildren = type { ptr, ptr }
%struct.DdSubtable = type { ptr, i32, i32, i32, i32, i32, i32, i32, i32, i32, i32, i32 }

; Function Attrs: nounwind uwtable
define internal ptr @cuddAddPermuteRecur(ptr noundef %0, ptr noundef %1, ptr noundef %2, ptr noundef %3) #0 {
  %5 = alloca ptr, align 8
  %6 = alloca ptr, align 8
  %7 = alloca ptr, align 8
  %8 = alloca ptr, align 8
  %9 = alloca ptr, align 8
  %10 = alloca ptr, align 8
  %11 = alloca ptr, align 8
  %12 = alloca ptr, align 8
  %13 = alloca ptr, align 8
  %14 = alloca i32, align 4
  %15 = alloca i32, align 4
  %16 = alloca i64, align 8
  store ptr %0, ptr %6, align 8, !tbaa !3
  store ptr %1, ptr %7, align 8, !tbaa !38
  store ptr %2, ptr %8, align 8, !tbaa !8
  store ptr %3, ptr %9, align 8, !tbaa !37
  call void @llvm.lifetime.start.p0(i64 8, ptr %10) #6
  call void @llvm.lifetime.start.p0(i64 8, ptr %11) #6
  call void @llvm.lifetime.start.p0(i64 8, ptr %12) #6
  call void @llvm.lifetime.start.p0(i64 8, ptr %13) #6
  call void @llvm.lifetime.start.p0(i64 4, ptr %14) #6
  %17 = load ptr, ptr %8, align 8, !tbaa !8
  %18 = getelementptr inbounds nuw %struct.DdNode, ptr %17, i32 0, i32 0
  %19 = load i32, ptr %18, align 8, !tbaa !33
  %20 = icmp eq i32 %19, 2147483647
  br i1 %20, label %21, label %23

21:                                               ; preds = %4
  %22 = load ptr, ptr %8, align 8, !tbaa !8
  store ptr %22, ptr %5, align 8
  store i32 1, ptr %15, align 4
  br label %164

23:                                               ; preds = %4
  %24 = load ptr, ptr %8, align 8, !tbaa !8
  %25 = getelementptr inbounds nuw %struct.DdNode, ptr %24, i32 0, i32 1
  %26 = load i32, ptr %25, align 4, !tbaa !35
  %27 = icmp ne i32 %26, 1
  br i1 %27, label %28, label %35

28:                                               ; preds = %23
  %29 = load ptr, ptr %7, align 8, !tbaa !38
  %30 = load ptr, ptr %8, align 8, !tbaa !8
  %31 = call ptr @cuddHashTableLookup1(ptr noundef %29, ptr noundef %30)
  store ptr %31, ptr %12, align 8, !tbaa !8
  %32 = icmp ne ptr %31, null
  br i1 %32, label %33, label %35

33:                                               ; preds = %28
  %34 = load ptr, ptr %12, align 8, !tbaa !8
  store ptr %34, ptr %5, align 8
  store i32 1, ptr %15, align 4
  br label %164

35:                                               ; preds = %28, %23
  %36 = load ptr, ptr %6, align 8, !tbaa !3
  %37 = load ptr, ptr %7, align 8, !tbaa !38
  %38 = load ptr, ptr %8, align 8, !tbaa !8
  %39 = getelementptr inbounds nuw %struct.DdNode, ptr %38, i32 0, i32 3
  %40 = getelementptr inbounds nuw %struct.DdChildren, ptr %39, i32 0, i32 0
  %41 = load ptr, ptr %40, align 8, !tbaa !34
  %42 = load ptr, ptr %9, align 8, !tbaa !37
  %43 = call ptr @cuddAddPermuteRecur(ptr noundef %36, ptr noundef %37, ptr noundef %41, ptr noundef %42)
  store ptr %43, ptr %10, align 8, !tbaa !8
  %44 = load ptr, ptr %10, align 8, !tbaa !8
  %45 = icmp eq ptr %44, null
  br i1 %45, label %46, label %47

46:                                               ; preds = %35
  store ptr null, ptr %5, align 8
  store i32 1, ptr %15, align 4
  br label %164

47:                                               ; preds = %35
  %48 = load ptr, ptr %10, align 8, !tbaa !8
  %49 = ptrtoint ptr %48 to i64
  %50 = and i64 %49, -2
  %51 = inttoptr i64 %50 to ptr
  %52 = getelementptr inbounds nuw %struct.DdNode, ptr %51, i32 0, i32 1
  %53 = load i32, ptr %52, align 4, !tbaa !35
  %54 = add i32 %53, 1
  store i32 %54, ptr %52, align 4, !tbaa !35
  %55 = load ptr, ptr %6, align 8, !tbaa !3
  %56 = load ptr, ptr %7, align 8, !tbaa !38
  %57 = load ptr, ptr %8, align 8, !tbaa !8
  %58 = getelementptr inbounds nuw %struct.DdNode, ptr %57, i32 0, i32 3
  %59 = getelementptr inbounds nuw %struct.DdChildren, ptr %58, i32 0, i32 1
  %60 = load ptr, ptr %59, align 8, !tbaa !34
  %61 = load ptr, ptr %9, align 8, !tbaa !37
  %62 = call ptr @cuddAddPermuteRecur(ptr noundef %55, ptr noundef %56, ptr noundef %60, ptr noundef %61)
  store ptr %62, ptr %11, align 8, !tbaa !8
  %63 = load ptr, ptr %11, align 8, !tbaa !8
  %64 = icmp eq ptr %63, null
  br i1 %64, label %65, label %68

65:                                               ; preds = %47
  %66 = load ptr, ptr %6, align 8, !tbaa !3
  %67 = load ptr, ptr %10, align 8, !tbaa !8
  call void @Cudd_RecursiveDeref(ptr noundef %66, ptr noundef %67)
  store ptr null, ptr %5, align 8
  store i32 1, ptr %15, align 4
  br label %164

68:                                               ; preds = %47
  %69 = load ptr, ptr %11, align 8, !tbaa !8
  %70 = ptrtoint ptr %69 to i64
  %71 = and i64 %70, -2
  %72 = inttoptr i64 %71 to ptr
  %73 = getelementptr inbounds nuw %struct.DdNode, ptr %72, i32 0, i32 1
  %74 = load i32, ptr %73, align 4, !tbaa !35
  %75 = add i32 %74, 1
  store i32 %75, ptr %73, align 4, !tbaa !35
  %76 = load ptr, ptr %9, align 8, !tbaa !37
  %77 = load ptr, ptr %8, align 8, !tbaa !8
  %78 = getelementptr inbounds nuw %struct.DdNode, ptr %77, i32 0, i32 0
  %79 = load i32, ptr %78, align 8, !tbaa !33
  %80 = zext i32 %79 to i64
  %81 = getelementptr inbounds nuw i32, ptr %76, i64 %80
  %82 = load i32, ptr %81, align 4, !tbaa !10
  store i32 %82, ptr %14, align 4, !tbaa !10
  %83 = load ptr, ptr %6, align 8, !tbaa !3
  %84 = load i32, ptr %14, align 4, !tbaa !10
  %85 = load ptr, ptr %6, align 8, !tbaa !3
  %86 = getelementptr inbounds nuw %struct.DdManager, ptr %85, i32 0, i32 1
  %87 = load ptr, ptr %86, align 8, !tbaa !41
  %88 = load ptr, ptr %6, align 8, !tbaa !3
  %89 = getelementptr inbounds nuw %struct.DdManager, ptr %88, i32 0, i32 2
  %90 = load ptr, ptr %89, align 8, !tbaa !42
  %91 = call ptr @cuddUniqueInter(ptr noundef %83, i32 noundef %84, ptr noundef %87, ptr noundef %90)
  store ptr %91, ptr %13, align 8, !tbaa !8
  %92 = load ptr, ptr %13, align 8, !tbaa !8
  %93 = icmp eq ptr %92, null
  br i1 %93, label %94, label %95

94:                                               ; preds = %68
  store ptr null, ptr %5, align 8
  store i32 1, ptr %15, align 4
  br label %164

95:                                               ; preds = %68
  %96 = load ptr, ptr %13, align 8, !tbaa !8
  %97 = ptrtoint ptr %96 to i64
  %98 = and i64 %97, -2
  %99 = inttoptr i64 %98 to ptr
  %100 = getelementptr inbounds nuw %struct.DdNode, ptr %99, i32 0, i32 1
  %101 = load i32, ptr %100, align 4, !tbaa !35
  %102 = add i32 %101, 1
  store i32 %102, ptr %100, align 4, !tbaa !35
  %103 = load ptr, ptr %6, align 8, !tbaa !3
  %104 = load ptr, ptr %13, align 8, !tbaa !8
  %105 = load ptr, ptr %10, align 8, !tbaa !8
  %106 = load ptr, ptr %11, align 8, !tbaa !8
  %107 = call ptr @cuddAddIteRecur(ptr noundef %103, ptr noundef %104, ptr noundef %105, ptr noundef %106)
  store ptr %107, ptr %12, align 8, !tbaa !8
  %108 = load ptr, ptr %12, align 8, !tbaa !8
  %109 = icmp eq ptr %108, null
  br i1 %109, label %110, label %117

110:                                              ; preds = %95
  %111 = load ptr, ptr %6, align 8, !tbaa !3
  %112 = load ptr, ptr %13, align 8, !tbaa !8
  call void @Cudd_RecursiveDeref(ptr noundef %111, ptr noundef %112)
  %113 = load ptr, ptr %6, align 8, !tbaa !3
  %114 = load ptr, ptr %10, align 8, !tbaa !8
  call void @Cudd_RecursiveDeref(ptr noundef %113, ptr noundef %114)
  %115 = load ptr, ptr %6, align 8, !tbaa !3
  %116 = load ptr, ptr %11, align 8, !tbaa !8
  call void @Cudd_RecursiveDeref(ptr noundef %115, ptr noundef %116)
  store ptr null, ptr %5, align 8
  store i32 1, ptr %15, align 4
  br label %164

117:                                              ; preds = %95
  %118 = load ptr, ptr %12, align 8, !tbaa !8
  %119 = ptrtoint ptr %118 to i64
  %120 = and i64 %119, -2
  %121 = inttoptr i64 %120 to ptr
  %122 = getelementptr inbounds nuw %struct.DdNode, ptr %121, i32 0, i32 1
  %123 = load i32, ptr %122, align 4, !tbaa !35
  %124 = add i32 %123, 1
  store i32 %124, ptr %122, align 4, !tbaa !35
  %125 = load ptr, ptr %6, align 8, !tbaa !3
  %126 = load ptr, ptr %13, align 8, !tbaa !8
  call void @Cudd_RecursiveDeref(ptr noundef %125, ptr noundef %126)
  %127 = load ptr, ptr %6, align 8, !tbaa !3
  %128 = load ptr, ptr %10, align 8, !tbaa !8
  call void @Cudd_RecursiveDeref(ptr noundef %127, ptr noundef %128)
  %129 = load ptr, ptr %6, align 8, !tbaa !3
  %130 = load ptr, ptr %11, align 8, !tbaa !8
  call void @Cudd_RecursiveDeref(ptr noundef %129, ptr noundef %130)
  %131 = load ptr, ptr %8, align 8, !tbaa !8
  %132 = getelementptr inbounds nuw %struct.DdNode, ptr %131, i32 0, i32 1
  %133 = load i32, ptr %132, align 4, !tbaa !35
  %134 = icmp ne i32 %133, 1
  br i1 %134, label %135, label %155

135:                                              ; preds = %117
  call void @llvm.lifetime.start.p0(i64 8, ptr %16) #6
  %136 = load ptr, ptr %8, align 8, !tbaa !8
  %137 = getelementptr inbounds nuw %struct.DdNode, ptr %136, i32 0, i32 1
  %138 = load i32, ptr %137, align 4, !tbaa !35
  %139 = zext i32 %138 to i64
  store i64 %139, ptr %16, align 8, !tbaa !43
  %140 = load i64, ptr %16, align 8, !tbaa !43
  %141 = add nsw i64 %140, -1
  store i64 %141, ptr %16, align 8, !tbaa !43
  %142 = load ptr, ptr %7, align 8, !tbaa !38
  %143 = load ptr, ptr %8, align 8, !tbaa !8
  %144 = load ptr, ptr %12, align 8, !tbaa !8
  %145 = load i64, ptr %16, align 8, !tbaa !43
  %146 = call i32 @cuddHashTableInsert1(ptr noundef %142, ptr noundef %143, ptr noundef %144, i64 noundef %145)
  %147 = icmp ne i32 %146, 0
  br i1 %147, label %151, label %148

148:                                              ; preds = %135
  %149 = load ptr, ptr %6, align 8, !tbaa !3
  %150 = load ptr, ptr %12, align 8, !tbaa !8
  call void @Cudd_RecursiveDeref(ptr noundef %149, ptr noundef %150)
  store ptr null, ptr %5, align 8
  store i32 1, ptr %15, align 4
  br label %152

151:                                              ; preds = %135
  store i32 0, ptr %15, align 4
  br label %152

152:                                              ; preds = %151, %148
  call void @llvm.lifetime.end.p0(i64 8, ptr %16) #6
  %153 = load i32, ptr %15, align 4
  switch i32 %153, label %164 [
    i32 0, label %154
  ]

154:                                              ; preds = %152
  br label %155

155:                                              ; preds = %154, %117
  %156 = load ptr, ptr %12, align 8, !tbaa !8
  %157 = ptrtoint ptr %156 to i64
  %158 = and i64 %157, -2
  %159 = inttoptr i64 %158 to ptr
  %160 = getelementptr inbounds nuw %struct.DdNode, ptr %159, i32 0, i32 1
  %161 = load i32, ptr %160, align 4, !tbaa !35
  %162 = add i32 %161, -1
  store i32 %162, ptr %160, align 4, !tbaa !35
  %163 = load ptr, ptr %12, align 8, !tbaa !8
  store ptr %163, ptr %5, align 8
  store i32 1, ptr %15, align 4
  br label %164

164:                                              ; preds = %155, %152, %110, %94, %65, %46, %33, %21
  call void @llvm.lifetime.end.p0(i64 4, ptr %14) #6
  call void @llvm.lifetime.end.p0(i64 8, ptr %13) #6
  call void @llvm.lifetime.end.p0(i64 8, ptr %12) #6
  call void @llvm.lifetime.end.p0(i64 8, ptr %11) #6
  call void @llvm.lifetime.end.p0(i64 8, ptr %10) #6
  %165 = load ptr, ptr %5, align 8
  ret ptr %165
}