; Function Attrs: nounwind uwtable
define internal fastcc ptr @cuddAddPermuteRecur(ptr noundef %0, ptr noundef nonnull %1, ptr noundef %2, ptr noundef %3) unnamed_addr #0 {
  %5 = load i32, ptr %2, align 8, !tbaa !30
  %6 = icmp eq i32 %5, 2147483647
  br i1 %6, label %71, label %7

7:                                                ; preds = %4
  %8 = getelementptr inbounds nuw i8, ptr %2, i64 4
  %9 = load i32, ptr %8, align 4, !tbaa !33
  %.not = icmp eq i32 %9, 1
  br i1 %.not, label %12, label %10

10:                                               ; preds = %7
  %11 = tail call ptr @cuddHashTableLookup1(ptr noundef nonnull %1, ptr noundef nonnull %2) #7
  %.not65 = icmp eq ptr %11, null
  br i1 %.not65, label %12, label %71

12:                                               ; preds = %10, %7
  %13 = getelementptr inbounds nuw i8, ptr %2, i64 16
  %14 = load ptr, ptr %13, align 8, !tbaa !32
  %15 = tail call fastcc ptr @cuddAddPermuteRecur(ptr noundef %0, ptr noundef %1, ptr noundef %14, ptr noundef %3)
  %16 = icmp eq ptr %15, null
  br i1 %16, label %71, label %17

17:                                               ; preds = %12
  %18 = ptrtoint ptr %15 to i64
  %19 = and i64 %18, -2
  %20 = inttoptr i64 %19 to ptr
  %21 = getelementptr inbounds nuw i8, ptr %20, i64 4
  %22 = load i32, ptr %21, align 4, !tbaa !33
  %23 = add i32 %22, 1
  store i32 %23, ptr %21, align 4, !tbaa !33
  %24 = getelementptr inbounds nuw i8, ptr %2, i64 24
  %25 = load ptr, ptr %24, align 8, !tbaa !32
  %26 = tail call fastcc ptr @cuddAddPermuteRecur(ptr noundef %0, ptr noundef %1, ptr noundef %25, ptr noundef %3)
  %27 = icmp eq ptr %26, null
  br i1 %27, label %28, label %29

28:                                               ; preds = %17
  tail call void @Cudd_RecursiveDeref(ptr noundef %0, ptr noundef nonnull %15) #7
  br label %71

29:                                               ; preds = %17
  %30 = ptrtoint ptr %26 to i64
  %31 = and i64 %30, -2
  %32 = inttoptr i64 %31 to ptr
  %33 = getelementptr inbounds nuw i8, ptr %32, i64 4
  %34 = load i32, ptr %33, align 4, !tbaa !33
  %35 = add i32 %34, 1
  store i32 %35, ptr %33, align 4, !tbaa !33
  %36 = load i32, ptr %2, align 8, !tbaa !30
  %37 = zext i32 %36 to i64
  %38 = getelementptr inbounds nuw i32, ptr %3, i64 %37
  %39 = load i32, ptr %38, align 4, !tbaa !31
  %40 = getelementptr inbounds nuw i8, ptr %0, i64 40
  %41 = load ptr, ptr %40, align 8, !tbaa !36
  %42 = getelementptr inbounds nuw i8, ptr %0, i64 48
  %43 = load ptr, ptr %42, align 8, !tbaa !37
  %44 = tail call ptr @cuddUniqueInter(ptr noundef %0, i32 noundef %39, ptr noundef %41, ptr noundef %43) #7
  %45 = icmp eq ptr %44, null
  br i1 %45, label %71, label %46

46:                                               ; preds = %29
  %47 = ptrtoint ptr %44 to i64
  %48 = and i64 %47, -2
  %49 = inttoptr i64 %48 to ptr
  %50 = getelementptr inbounds nuw i8, ptr %49, i64 4
  %51 = load i32, ptr %50, align 4, !tbaa !33
  %52 = add i32 %51, 1
  store i32 %52, ptr %50, align 4, !tbaa !33
  %53 = tail call ptr @cuddAddIteRecur(ptr noundef nonnull %0, ptr noundef nonnull %44, ptr noundef nonnull %15, ptr noundef nonnull %26) #7
  %54 = icmp eq ptr %53, null
  br i1 %54, label %55, label %56

55:                                               ; preds = %46
  tail call void @Cudd_RecursiveDeref(ptr noundef nonnull %0, ptr noundef nonnull %44) #7
  tail call void @Cudd_RecursiveDeref(ptr noundef nonnull %0, ptr noundef nonnull %15) #7
  tail call void @Cudd_RecursiveDeref(ptr noundef nonnull %0, ptr noundef nonnull %26) #7
  br label %71

56:                                               ; preds = %46
  %57 = ptrtoint ptr %53 to i64
  %58 = and i64 %57, -2
  %59 = inttoptr i64 %58 to ptr
  %60 = getelementptr inbounds nuw i8, ptr %59, i64 4
  %61 = load i32, ptr %60, align 4, !tbaa !33
  %62 = add i32 %61, 1
  store i32 %62, ptr %60, align 4, !tbaa !33
  tail call void @Cudd_RecursiveDeref(ptr noundef nonnull %0, ptr noundef nonnull %44) #7
  tail call void @Cudd_RecursiveDeref(ptr noundef nonnull %0, ptr noundef nonnull %15) #7
  tail call void @Cudd_RecursiveDeref(ptr noundef nonnull %0, ptr noundef nonnull %26) #7
  %63 = load i32, ptr %8, align 4, !tbaa !33
  %.not66 = icmp eq i32 %63, 1
  br i1 %.not66, label %.critedge, label %64

64:                                               ; preds = %56
  %65 = zext i32 %63 to i64
  %66 = add nsw i64 %65, -1
  %67 = tail call i32 @cuddHashTableInsert1(ptr noundef nonnull %1, ptr noundef nonnull %2, ptr noundef nonnull %53, i64 noundef %66) #7
  %.not67.not = icmp eq i32 %67, 0
  br i1 %.not67.not, label %68, label %.critedge

68:                                               ; preds = %64
  tail call void @Cudd_RecursiveDeref(ptr noundef nonnull %0, ptr noundef nonnull %53) #7
  br label %71

.critedge:                                        ; preds = %64, %56
  %69 = load i32, ptr %60, align 4, !tbaa !33
  %70 = add i32 %69, -1
  store i32 %70, ptr %60, align 4, !tbaa !33
  br label %71

71:                                               ; preds = %68, %29, %12, %10, %4, %.critedge, %55, %28
  %.0 = phi ptr [ null, %28 ], [ null, %55 ], [ %53, %.critedge ], [ null, %68 ], [ %2, %4 ], [ %11, %10 ], [ null, %12 ], [ null, %29 ]
  ret ptr %.0
}